target datalayout = "e-m:e-p270:32:32-p271:32:32-p272:64:64-i64:64-i128:128-f80:128-n8:16:32:64-S128"
target triple = "x86_64-pc-linux-gnu"

%"struct.folly::NetworkSocket" = type { i32 }
%struct.tcp_info = type { i8, i8, i8, i8, i8, i8, i8, i32, i32, i32, i32, i32, i32, i32, i32, i32, i32, i32, i32, i32, i32, i32, i32, i32, i32, i32, i32, i32, i32, i32, i32 }

; Function Attrs: mustprogress uwtable
define noundef zeroext i1 @_ZN5folly6detail13tfo_succeededENS_13NetworkSocketE(i32 %0) #0 {
  %2 = alloca i1, align 1
  %3 = alloca %"struct.folly::NetworkSocket", align 4
  %4 = alloca %struct.tcp_info, align 4
  %5 = alloca i32, align 4
  %6 = alloca %"struct.folly::NetworkSocket", align 4
  %7 = alloca i32, align 4
  %8 = getelementptr inbounds nuw %"struct.folly::NetworkSocket", ptr %3, i32 0, i32 0
  store i32 %0, ptr %8, align 4
  call void @llvm.lifetime.start.p0(i64 104, ptr %4) #5
  call void @llvm.lifetime.start.p0(i64 4, ptr %5) #5
  store i32 104, ptr %5, align 4, !tbaa !12
  %9 = call ptr @__errno_location() #13
  store i32 0, ptr %9, align 4, !tbaa !12
  call void @llvm.memcpy.p0.p0.i64(ptr align 4 %6, ptr align 4 %3, i64 4, i1 false), !tbaa.struct !14
  %10 = getelementptr inbounds nuw %"struct.folly::NetworkSocket", ptr %6, i32 0, i32 0
  %11 = load i32, ptr %10, align 4
  %12 = call noundef i32 @_ZN5folly6netops10getsockoptENS_13NetworkSocketEiiPvPj(i32 %11, i32 noundef 6, i32 noundef 11, ptr noundef %4, ptr noundef %5)
  %13 = icmp ne i32 %12, 0
  br i1 %13, label %14, label %15

14:                                               ; preds = %1
  store i1 false, ptr %2, align 1
  store i32 1, ptr %7, align 4
  br label %21

15:                                               ; preds = %1
  %16 = getelementptr inbounds nuw %struct.tcp_info, ptr %4, i32 0, i32 5
  %17 = load i8, ptr %16, align 1, !tbaa !17
  %18 = zext i8 %17 to i32
  %19 = and i32 %18, 32
  %20 = icmp ne i32 %19, 0
  store i1 %20, ptr %2, align 1
  store i32 1, ptr %7, align 4
  br label %21

21:                                               ; preds = %15, %14
  call void @llvm.lifetime.end.p0(i64 4, ptr %5) #5
  call void @llvm.lifetime.end.p0(i64 104, ptr %4) #5
  %22 = load i1, ptr %2, align 1
  ret i1 %22
}