; Function Attrs: mustprogress uwtable
define noundef zeroext i1 @_ZN5folly6detail13tfo_succeededENS_13NetworkSocketE(i32 %0) local_unnamed_addr #0 {
  %2 = alloca %struct.tcp_info, align 4
  %3 = alloca i32, align 4
  call void @llvm.lifetime.start.p0(i64 104, ptr nonnull %2) #9
  call void @llvm.lifetime.start.p0(i64 4, ptr nonnull %3) #9
  store i32 104, ptr %3, align 4, !tbaa !11
  %4 = tail call ptr @__errno_location() #10
  store i32 0, ptr %4, align 4, !tbaa !11
  %5 = call noundef i32 @_ZN5folly6netops10getsockoptENS_13NetworkSocketEiiPvPj(i32 %0, i32 noundef 6, i32 noundef 11, ptr noundef nonnull %2, ptr noundef nonnull %3)
  %.not = icmp eq i32 %5, 0
  %6 = getelementptr inbounds nuw i8, ptr %2, i64 5
  %7 = load i8, ptr %6, align 1
  %8 = and i8 %7, 32
  %9 = icmp ne i8 %8, 0
  %.0 = select i1 %.not, i1 %9, i1 false
  call void @llvm.lifetime.end.p0(i64 4, ptr nonnull %3) #9
  call void @llvm.lifetime.end.p0(i64 104, ptr nonnull %2) #9
  ret i1 %.0
}